target datalayout = "e-m:e-p270:32:32-p271:32:32-p272:64:64-i64:64-i128:128-f80:128-n8:16:32:64-S128"
target triple = "x86_64-pc-linux-gnu"

%"class.std::__cxx11::basic_string" = type { %"struct.std::__cxx11::basic_string<char>::_Alloc_hider", i64, %union.anon }
%"struct.std::__cxx11::basic_string<char>::_Alloc_hider" = type { ptr }
%union.anon = type { i64, [8 x i8] }
%"class.testing::internal::Mutex" = type { %"class.testing::internal::MutexBase" }
%"class.testing::internal::MutexBase" = type { %union.pthread_mutex_t, i8, i64 }
%union.pthread_mutex_t = type { %struct.__pthread_mutex_s }
%struct.__pthread_mutex_s = type { i32, i32, i32, i32, i32, i16, i16, %struct.__pthread_internal_list }
%struct.__pthread_internal_list = type { ptr, ptr }
%"class.testing::TestResult" = type { %"class.testing::internal::Mutex", %"class.std::vector.43", %"class.std::vector.48", i32, i64, i64 }
%"class.std::vector.43" = type { %"struct.std::_Vector_base.44" }
%"struct.std::_Vector_base.44" = type { %"struct.std::_Vector_base<testing::TestPartResult, std::allocator<testing::TestPartResult>>::_Vector_impl" }
%"struct.std::_Vector_base<testing::TestPartResult, std::allocator<testing::TestPartResult>>::_Vector_impl" = type { %"struct.std::_Vector_base<testing::TestPartResult, std::allocator<testing::TestPartResult>>::_Vector_impl_data" }
%"struct.std::_Vector_base<testing::TestPartResult, std::allocator<testing::TestPartResult>>::_Vector_impl_data" = type { ptr, ptr, ptr }
%"class.std::vector.48" = type { %"struct.std::_Vector_base.49" }
%"struct.std::_Vector_base.49" = type { %"struct.std::_Vector_base<testing::TestProperty, std::allocator<testing::TestProperty>>::_Vector_impl" }
%"struct.std::_Vector_base<testing::TestProperty, std::allocator<testing::TestProperty>>::_Vector_impl" = type { %"struct.std::_Vector_base<testing::TestProperty, std::allocator<testing::TestProperty>>::_Vector_impl_data" }
%"struct.std::_Vector_base<testing::TestProperty, std::allocator<testing::TestProperty>>::_Vector_impl_data" = type { ptr, ptr, ptr }
%"class.testing::TestPartResult" = type { i32, %"class.std::__cxx11::basic_string", i32, %"class.std::__cxx11::basic_string", %"class.std::__cxx11::basic_string" }
%"class.__gnu_cxx::__normal_iterator.309" = type { ptr }

@.str.546 = private unnamed_addr constant [74 x i8] c"vector::_M_range_check: __n (which is %zu) >= this->size() (which is %zu)\00", align 1

; Function Attrs: mustprogress nounwind uwtable
define linkonce_odr noundef nonnull align 8 dereferenceable(112) ptr @_ZNKSt6vectorIN7testing14TestPartResultESaIS1_EEixEm(ptr noundef nonnull align 8 dereferenceable(24) %0, i64 noundef %1) #7 comdat align 2 {
  %3 = alloca ptr, align 8
  %4 = alloca i64, align 8
  store ptr %0, ptr %3, align 8, !tbaa !387
  store i64 %1, ptr %4, align 8, !tbaa !181
  %5 = load ptr, ptr %3, align 8
  %6 = getelementptr inbounds nuw %"struct.std::_Vector_base.44", ptr %5, i32 0, i32 0
  %7 = getelementptr inbounds nuw %"struct.std::_Vector_base<testing::TestPartResult, std::allocator<testing::TestPartResult>>::_Vector_impl_data", ptr %6, i32 0, i32 0
  %8 = load ptr, ptr %7, align 8, !tbaa !391
  %9 = load i64, ptr %4, align 8, !tbaa !181
  %10 = getelementptr inbounds nuw %"class.testing::TestPartResult", ptr %8, i64 %9
  ret ptr %10
}

; Function Attrs: mustprogress uwtable
define linkonce_odr void @_ZNKSt6vectorIN7testing14TestPartResultESaIS1_EE14_M_range_checkEm(ptr noundef nonnull align 8 dereferenceable(24) %0, i64 noundef %1) #4 comdat align 2 {
  %3 = alloca ptr, align 8
  %4 = alloca i64, align 8
  store ptr %0, ptr %3, align 8, !tbaa !387
  store i64 %1, ptr %4, align 8, !tbaa !181
  %5 = load ptr, ptr %3, align 8
  %6 = load i64, ptr %4, align 8, !tbaa !181
  %7 = call noundef i64 @_ZNKSt6vectorIN7testing14TestPartResultESaIS1_EE4sizeEv(ptr noundef nonnull align 8 dereferenceable(24) %5) #3
  %8 = icmp uge i64 %6, %7
  br i1 %8, label %9, label %12

9:                                                ; preds = %2
  %10 = load i64, ptr %4, align 8, !tbaa !181
  %11 = call noundef i64 @_ZNKSt6vectorIN7testing14TestPartResultESaIS1_EE4sizeEv(ptr noundef nonnull align 8 dereferenceable(24) %5) #3
  call void (ptr, ...) @_ZSt24__throw_out_of_range_fmtPKcz(ptr noundef @.str.546, i64 noundef %10, i64 noundef %11) #34
  unreachable

12:                                               ; preds = %2
  ret void
}

; Function Attrs: mustprogress nounwind uwtable
define linkonce_odr noundef nonnull align 8 dereferenceable(8) ptr @_ZNK9__gnu_cxx17__normal_iteratorIPKN7testing14TestPartResultESt6vectorIS2_SaIS2_EEE4baseEv(ptr noundef nonnull align 8 dereferenceable(8) %0) #7 comdat align 2 {
  %2 = alloca ptr, align 8
  store ptr %0, ptr %2, align 8, !tbaa !1778
  %3 = load ptr, ptr %2, align 8
  %4 = getelementptr inbounds nuw %"class.__gnu_cxx::__normal_iterator.309", ptr %3, i32 0, i32 0
  ret ptr %4
}

; Function Attrs: mustprogress nounwind uwtable
define linkonce_odr void @_ZN9__gnu_cxx17__normal_iteratorIPKN7testing14TestPartResultESt6vectorIS2_SaIS2_EEEC2ERKS4_(ptr noundef nonnull align 8 dereferenceable(8) %0, ptr noundef nonnull align 8 dereferenceable(8) %1) unnamed_addr #7 comdat align 2 {
  %3 = alloca ptr, align 8
  %4 = alloca ptr, align 8
  store ptr %0, ptr %3, align 8, !tbaa !1778
  store ptr %1, ptr %4, align 8, !tbaa !1629
  %5 = load ptr, ptr %3, align 8
  %6 = getelementptr inbounds nuw %"class.__gnu_cxx::__normal_iterator.309", ptr %5, i32 0, i32 0
  %7 = load ptr, ptr %4, align 8, !tbaa !1629
  %8 = load ptr, ptr %7, align 8, !tbaa !381
  store ptr %8, ptr %6, align 8, !tbaa !1780
  ret void
}

; Function Attrs: mustprogress nounwind uwtable
define linkonce_odr noundef zeroext i1 @_ZNK7testing14TestPartResult17nonfatally_failedEv(ptr noundef nonnull align 8 dereferenceable(112) %0) #7 comdat align 2 {
  %2 = alloca ptr, align 8
  store ptr %0, ptr %2, align 8, !tbaa !381
  %3 = load ptr, ptr %2, align 8
  %4 = getelementptr inbounds nuw %"class.testing::TestPartResult", ptr %3, i32 0, i32 0
  %5 = load i32, ptr %4, align 8, !tbaa !384
  %6 = icmp eq i32 %5, 1
  ret i1 %6
}

; Function Attrs: mustprogress nounwind uwtable
define linkonce_odr noundef zeroext i1 @_ZNK7testing14TestPartResult14fatally_failedEv(ptr noundef nonnull align 8 dereferenceable(112) %0) #7 comdat align 2 {
  %2 = alloca ptr, align 8
  store ptr %0, ptr %2, align 8, !tbaa !381
  %3 = load ptr, ptr %2, align 8
  %4 = getelementptr inbounds nuw %"class.testing::TestPartResult", ptr %3, i32 0, i32 0
  %5 = load i32, ptr %4, align 8, !tbaa !384
  %6 = icmp eq i32 %5, 2
  ret i1 %6
}

; Function Attrs: mustprogress uwtable
define linkonce_odr noundef nonnull align 8 dereferenceable(112) ptr @_ZNKSt6vectorIN7testing14TestPartResultESaIS1_EE2atEm(ptr noundef nonnull align 8 dereferenceable(24) %0, i64 noundef %1) #4 comdat align 2 {
  %3 = alloca ptr, align 8
  %4 = alloca i64, align 8
  store ptr %0, ptr %3, align 8, !tbaa !387
  store i64 %1, ptr %4, align 8, !tbaa !181
  %5 = load ptr, ptr %3, align 8
  %6 = load i64, ptr %4, align 8, !tbaa !181
  call void @_ZNKSt6vectorIN7testing14TestPartResultESaIS1_EE14_M_range_checkEm(ptr noundef nonnull align 8 dereferenceable(24) %5, i64 noundef %6)
  %7 = load i64, ptr %4, align 8, !tbaa !181
  %8 = call noundef nonnull align 8 dereferenceable(112) ptr @_ZNKSt6vectorIN7testing14TestPartResultESaIS1_EEixEm(ptr noundef nonnull align 8 dereferenceable(24) %5, i64 noundef %7) #3
  ret ptr %8
}

; Function Attrs: inlinehint mustprogress noreturn nounwind uwtable
define linkonce_odr void @_ZN7testing8internal5posix5AbortEv() #18 comdat {
  call void @abort() #33
  unreachable
}

; Function Attrs: mustprogress nounwind uwtable
define linkonce_odr noundef i64 @_ZNKSt6vectorIN7testing14TestPartResultESaIS1_EE4sizeEv(ptr noundef nonnull align 8 dereferenceable(24) %0) #7 comdat align 2 {
  %2 = alloca ptr, align 8
  store ptr %0, ptr %2, align 8, !tbaa !387
  %3 = load ptr, ptr %2, align 8
  %4 = getelementptr inbounds nuw %"struct.std::_Vector_base.44", ptr %3, i32 0, i32 0
  %5 = getelementptr inbounds nuw %"struct.std::_Vector_base<testing::TestPartResult, std::allocator<testing::TestPartResult>>::_Vector_impl_data", ptr %4, i32 0, i32 1
  %6 = load ptr, ptr %5, align 8, !tbaa !389
  %7 = getelementptr inbounds nuw %"struct.std::_Vector_base.44", ptr %3, i32 0, i32 0
  %8 = getelementptr inbounds nuw %"struct.std::_Vector_base<testing::TestPartResult, std::allocator<testing::TestPartResult>>::_Vector_impl_data", ptr %7, i32 0, i32 0
  %9 = load ptr, ptr %8, align 8, !tbaa !391
  %10 = ptrtoint ptr %6 to i64
  %11 = ptrtoint ptr %9 to i64
  %12 = sub i64 %10, %11
  %13 = sdiv exact i64 %12, 112
  ret i64 %13
}

; Function Attrs: mustprogress nounwind uwtable
define linkonce_odr noundef nonnull align 8 dereferenceable(8) ptr @_ZN9__gnu_cxx17__normal_iteratorIPKN7testing14TestPartResultESt6vectorIS2_SaIS2_EEEppEv(ptr noundef nonnull align 8 dereferenceable(8) %0) #7 comdat align 2 {
  %2 = alloca ptr, align 8
  store ptr %0, ptr %2, align 8, !tbaa !1778
  %3 = load ptr, ptr %2, align 8
  %4 = getelementptr inbounds nuw %"class.__gnu_cxx::__normal_iterator.309", ptr %3, i32 0, i32 0
  %5 = load ptr, ptr %4, align 8, !tbaa !1780
  %6 = getelementptr inbounds nuw %"class.testing::TestPartResult", ptr %5, i32 1
  store ptr %6, ptr %4, align 8, !tbaa !1780
  ret ptr %3
}

; Function Attrs: mustprogress nounwind uwtable
define linkonce_odr noundef nonnull align 8 dereferenceable(112) ptr @_ZNK9__gnu_cxx17__normal_iteratorIPKN7testing14TestPartResultESt6vectorIS2_SaIS2_EEEdeEv(ptr noundef nonnull align 8 dereferenceable(8) %0) #7 comdat align 2 {
  %2 = alloca ptr, align 8
  store ptr %0, ptr %2, align 8, !tbaa !1778
  %3 = load ptr, ptr %2, align 8
  %4 = getelementptr inbounds nuw %"class.__gnu_cxx::__normal_iterator.309", ptr %3, i32 0, i32 0
  %5 = load ptr, ptr %4, align 8, !tbaa !1780
  ret ptr %5
}

; Function Attrs: inlinehint mustprogress nounwind uwtable
define linkonce_odr noundef zeroext i1 @_ZN9__gnu_cxxneIPKN7testing14TestPartResultESt6vectorIS2_SaIS2_EEEEbRKNS_17__normal_iteratorIT_T0_EESD_(ptr noundef nonnull align 8 dereferenceable(8) %0, ptr noundef nonnull align 8 dereferenceable(8) %1) #5 comdat {
  %3 = alloca ptr, align 8
  %4 = alloca ptr, align 8
  store ptr %0, ptr %3, align 8, !tbaa !1778
  store ptr %1, ptr %4, align 8, !tbaa !1778
  %5 = load ptr, ptr %3, align 8, !tbaa !1778
  %6 = call noundef nonnull align 8 dereferenceable(8) ptr @_ZNK9__gnu_cxx17__normal_iteratorIPKN7testing14TestPartResultESt6vectorIS2_SaIS2_EEE4baseEv(ptr noundef nonnull align 8 dereferenceable(8) %5) #3
  %7 = load ptr, ptr %6, align 8, !tbaa !381
  %8 = load ptr, ptr %4, align 8, !tbaa !1778
  %9 = call noundef nonnull align 8 dereferenceable(8) ptr @_ZNK9__gnu_cxx17__normal_iteratorIPKN7testing14TestPartResultESt6vectorIS2_SaIS2_EEE4baseEv(ptr noundef nonnull align 8 dereferenceable(8) %8) #3
  %10 = load ptr, ptr %9, align 8, !tbaa !381
  %11 = icmp ne ptr %7, %10
  ret i1 %11
}

; Function Attrs: mustprogress nounwind uwtable
define linkonce_odr ptr @_ZNKSt6vectorIN7testing14TestPartResultESaIS1_EE3endEv(ptr noundef nonnull align 8 dereferenceable(24) %0) #7 comdat align 2 {
  %2 = alloca %"class.__gnu_cxx::__normal_iterator.309", align 8
  %3 = alloca ptr, align 8
  store ptr %0, ptr %3, align 8, !tbaa !387
  %4 = load ptr, ptr %3, align 8
  %5 = getelementptr inbounds nuw %"struct.std::_Vector_base.44", ptr %4, i32 0, i32 0
  %6 = getelementptr inbounds nuw %"struct.std::_Vector_base<testing::TestPartResult, std::allocator<testing::TestPartResult>>::_Vector_impl_data", ptr %5, i32 0, i32 1
  call void @_ZN9__gnu_cxx17__normal_iteratorIPKN7testing14TestPartResultESt6vectorIS2_SaIS2_EEEC2ERKS4_(ptr noundef nonnull align 8 dereferenceable(8) %2, ptr noundef nonnull align 8 dereferenceable(8) %6) #3
  %7 = getelementptr inbounds nuw %"class.__gnu_cxx::__normal_iterator.309", ptr %2, i32 0, i32 0
  %8 = load ptr, ptr %7, align 8
  ret ptr %8
}

; Function Attrs: mustprogress nounwind uwtable
define linkonce_odr ptr @_ZNKSt6vectorIN7testing14TestPartResultESaIS1_EE5beginEv(ptr noundef nonnull align 8 dereferenceable(24) %0) #7 comdat align 2 {
  %2 = alloca %"class.__gnu_cxx::__normal_iterator.309", align 8
  %3 = alloca ptr, align 8
  store ptr %0, ptr %3, align 8, !tbaa !387
  %4 = load ptr, ptr %3, align 8
  %5 = getelementptr inbounds nuw %"struct.std::_Vector_base.44", ptr %4, i32 0, i32 0
  %6 = getelementptr inbounds nuw %"struct.std::_Vector_base<testing::TestPartResult, std::allocator<testing::TestPartResult>>::_Vector_impl_data", ptr %5, i32 0, i32 0
  call void @_ZN9__gnu_cxx17__normal_iteratorIPKN7testing14TestPartResultESt6vectorIS2_SaIS2_EEEC2ERKS4_(ptr noundef nonnull align 8 dereferenceable(8) %2, ptr noundef nonnull align 8 dereferenceable(8) %6) #3
  %7 = getelementptr inbounds nuw %"class.__gnu_cxx::__normal_iterator.309", ptr %2, i32 0, i32 0
  %8 = load ptr, ptr %7, align 8
  ret ptr %8
}

; Function Attrs: mustprogress uwtable
define linkonce_odr noundef zeroext i1 @_ZNK7testing14TestPartResult6failedEv(ptr noundef nonnull align 8 dereferenceable(112) %0) #4 comdat align 2 {
  %2 = alloca ptr, align 8
  store ptr %0, ptr %2, align 8, !tbaa !381
  %3 = load ptr, ptr %2, align 8
  %4 = call noundef zeroext i1 @_ZNK7testing14TestPartResult14fatally_failedEv(ptr noundef nonnull align 8 dereferenceable(112) %3)
  br i1 %4, label %7, label %5

5:                                                ; preds = %1
  %6 = call noundef zeroext i1 @_ZNK7testing14TestPartResult17nonfatally_failedEv(ptr noundef nonnull align 8 dereferenceable(112) %3)
  br label %7

7:                                                ; preds = %5, %1
  %8 = phi i1 [ true, %1 ], [ %6, %5 ]
  ret i1 %8
}

; Function Attrs: mustprogress uwtable
define noundef nonnull align 8 dereferenceable(112) ptr @_ZNK7testing10TestResult17GetTestPartResultEi(ptr noundef nonnull align 8 dereferenceable(128) %0, i32 noundef %1) #4 align 2 {
  %3 = alloca ptr, align 8
  %4 = alloca i32, align 4
  store ptr %0, ptr %3, align 8, !tbaa !224
  store i32 %1, ptr %4, align 4, !tbaa !39
  %5 = load ptr, ptr %3, align 8
  %6 = load i32, ptr %4, align 4, !tbaa !39
  %7 = icmp slt i32 %6, 0
  br i1 %7, label %12, label %8

8:                                                ; preds = %2
  %9 = load i32, ptr %4, align 4, !tbaa !39
  %10 = call noundef i32 @_ZNK7testing10TestResult16total_part_countEv(ptr noundef nonnull align 8 dereferenceable(128) %5)
  %11 = icmp sge i32 %9, %10
  br i1 %11, label %12, label %13

12:                                               ; preds = %8, %2
  call void @_ZN7testing8internal5posix5AbortEv() #34
  unreachable

13:                                               ; preds = %8
  %14 = getelementptr inbounds nuw %"class.testing::TestResult", ptr %5, i32 0, i32 1
  %15 = load i32, ptr %4, align 4, !tbaa !39
  %16 = sext i32 %15 to i64
  %17 = call noundef nonnull align 8 dereferenceable(112) ptr @_ZNKSt6vectorIN7testing14TestPartResultESaIS1_EE2atEm(ptr noundef nonnull align 8 dereferenceable(24) %14, i64 noundef %16)
  ret ptr %17
}

; Function Attrs: mustprogress nounwind uwtable
define noundef i32 @_ZNK7testing10TestResult16total_part_countEv(ptr noundef nonnull align 8 dereferenceable(128) %0) #7 align 2 {
  %2 = alloca ptr, align 8
  store ptr %0, ptr %2, align 8, !tbaa !224
  %3 = load ptr, ptr %2, align 8
  %4 = getelementptr inbounds nuw %"class.testing::TestResult", ptr %3, i32 0, i32 1
  %5 = call noundef i64 @_ZNKSt6vectorIN7testing14TestPartResultESaIS1_EE4sizeEv(ptr noundef nonnull align 8 dereferenceable(24) %4) #3
  %6 = trunc i64 %5 to i32
  ret i32 %6
}

; Function Attrs: inlinehint mustprogress uwtable
define linkonce_odr noundef i32 @_ZN7testing8internal7CountIfISt6vectorINS_14TestPartResultESaIS3_EEPFbRKS3_EEEiRKT_T0_(ptr noundef nonnull align 8 dereferenceable(24) %0, ptr noundef %1) #11 comdat {
  %3 = alloca ptr, align 8
  %4 = alloca ptr, align 8
  %5 = alloca i32, align 4
  %6 = alloca %"class.__gnu_cxx::__normal_iterator.309", align 8
  %7 = alloca %"class.__gnu_cxx::__normal_iterator.309", align 8
  store ptr %0, ptr %3, align 8, !tbaa !387
  store ptr %1, ptr %4, align 8, !tbaa !28
  call void @llvm.lifetime.start.p0(i64 4, ptr %5) #3
  store i32 0, ptr %5, align 4, !tbaa !39
  call void @llvm.lifetime.start.p0(i64 8, ptr %6) #3
  %8 = load ptr, ptr %3, align 8, !tbaa !387
  %9 = call ptr @_ZNKSt6vectorIN7testing14TestPartResultESaIS1_EE5beginEv(ptr noundef nonnull align 8 dereferenceable(24) %8) #3
  %10 = getelementptr inbounds nuw %"class.__gnu_cxx::__normal_iterator.309", ptr %6, i32 0, i32 0
  store ptr %9, ptr %10, align 8
  br label %11

11:                                               ; preds = %25, %2
  call void @llvm.lifetime.start.p0(i64 8, ptr %7) #3
  %12 = load ptr, ptr %3, align 8, !tbaa !387
  %13 = call ptr @_ZNKSt6vectorIN7testing14TestPartResultESaIS1_EE3endEv(ptr noundef nonnull align 8 dereferenceable(24) %12) #3
  %14 = getelementptr inbounds nuw %"class.__gnu_cxx::__normal_iterator.309", ptr %7, i32 0, i32 0
  store ptr %13, ptr %14, align 8
  %15 = call noundef zeroext i1 @_ZN9__gnu_cxxneIPKN7testing14TestPartResultESt6vectorIS2_SaIS2_EEEEbRKNS_17__normal_iteratorIT_T0_EESD_(ptr noundef nonnull align 8 dereferenceable(8) %6, ptr noundef nonnull align 8 dereferenceable(8) %7) #3
  call void @llvm.lifetime.end.p0(i64 8, ptr %7) #3
  br i1 %15, label %17, label %16

16:                                               ; preds = %11
  call void @llvm.lifetime.end.p0(i64 8, ptr %6) #3
  br label %27

17:                                               ; preds = %11
  %18 = load ptr, ptr %4, align 8, !tbaa !28
  %19 = call noundef nonnull align 8 dereferenceable(112) ptr @_ZNK9__gnu_cxx17__normal_iteratorIPKN7testing14TestPartResultESt6vectorIS2_SaIS2_EEEdeEv(ptr noundef nonnull align 8 dereferenceable(8) %6) #3
  %20 = call noundef zeroext i1 %18(ptr noundef nonnull align 8 dereferenceable(112) %19)
  br i1 %20, label %21, label %24

21:                                               ; preds = %17
  %22 = load i32, ptr %5, align 4, !tbaa !39
  %23 = add nsw i32 %22, 1
  store i32 %23, ptr %5, align 4, !tbaa !39
  br label %24

24:                                               ; preds = %21, %17
  br label %25

25:                                               ; preds = %24
  %26 = call noundef nonnull align 8 dereferenceable(8) ptr @_ZN9__gnu_cxx17__normal_iteratorIPKN7testing14TestPartResultESt6vectorIS2_SaIS2_EEEppEv(ptr noundef nonnull align 8 dereferenceable(8) %6) #3
  br label %11, !llvm.loop !644

27:                                               ; preds = %16
  %28 = load i32, ptr %5, align 4, !tbaa !39
  call void @llvm.lifetime.end.p0(i64 4, ptr %5) #3
  ret i32 %28
}

; Function Attrs: mustprogress uwtable
define noundef zeroext i1 @_ZNK7testing10TestResult6FailedEv(ptr noundef nonnull align 8 dereferenceable(128) %0) #4 align 2 {
  %2 = alloca i1, align 1
  %3 = alloca ptr, align 8
  %4 = alloca i32, align 4
  %5 = alloca i32, align 4
  store ptr %0, ptr %3, align 8, !tbaa !224
  %6 = load ptr, ptr %3, align 8
  call void @llvm.lifetime.start.p0(i64 4, ptr %4) #3
  store i32 0, ptr %4, align 4, !tbaa !39
  br label %7

7:                                                ; preds = %18, %1
  %8 = load i32, ptr %4, align 4, !tbaa !39
  %9 = call noundef i32 @_ZNK7testing10TestResult16total_part_countEv(ptr noundef nonnull align 8 dereferenceable(128) %6)
  %10 = icmp slt i32 %8, %9
  br i1 %10, label %12, label %11

11:                                               ; preds = %7
  store i32 2, ptr %5, align 4
  br label %21

12:                                               ; preds = %7
  %13 = load i32, ptr %4, align 4, !tbaa !39
  %14 = call noundef nonnull align 8 dereferenceable(112) ptr @_ZNK7testing10TestResult17GetTestPartResultEi(ptr noundef nonnull align 8 dereferenceable(128) %6, i32 noundef %13)
  %15 = call noundef zeroext i1 @_ZNK7testing14TestPartResult6failedEv(ptr noundef nonnull align 8 dereferenceable(112) %14)
  br i1 %15, label %16, label %17

16:                                               ; preds = %12
  store i1 true, ptr %2, align 1
  store i32 1, ptr %5, align 4
  br label %21

17:                                               ; preds = %12
  br label %18

18:                                               ; preds = %17
  %19 = load i32, ptr %4, align 4, !tbaa !39
  %20 = add nsw i32 %19, 1
  store i32 %20, ptr %4, align 4, !tbaa !39
  br label %7, !llvm.loop !643

21:                                               ; preds = %16, %11
  call void @llvm.lifetime.end.p0(i64 4, ptr %4) #3
  %22 = load i32, ptr %5, align 4
  switch i32 %22, label %26 [
    i32 2, label %23
    i32 1, label %24
  ]

23:                                               ; preds = %21
  store i1 false, ptr %2, align 1
  br label %24

24:                                               ; preds = %23, %21
  %25 = load i1, ptr %2, align 1
  ret i1 %25

26:                                               ; preds = %21
  unreachable
}

; Function Attrs: mustprogress uwtable
define noundef zeroext i1 @_ZNK7testing10TestResult7SkippedEv(ptr noundef nonnull align 8 dereferenceable(128) %0) #4 align 2 {
  %2 = alloca ptr, align 8
  store ptr %0, ptr %2, align 8, !tbaa !224
  %3 = load ptr, ptr %2, align 8
  %4 = call noundef zeroext i1 @_ZNK7testing10TestResult6FailedEv(ptr noundef nonnull align 8 dereferenceable(128) %3)
  br i1 %4, label %9, label %5

5:                                                ; preds = %1
  %6 = getelementptr inbounds nuw %"class.testing::TestResult", ptr %3, i32 0, i32 1
  %7 = call noundef i32 @_ZN7testing8internal7CountIfISt6vectorINS_14TestPartResultESaIS3_EEPFbRKS3_EEEiRKT_T0_(ptr noundef nonnull align 8 dereferenceable(24) %6, ptr noundef @_ZN7testingL15TestPartSkippedERKNS_14TestPartResultE)
  %8 = icmp sgt i32 %7, 0
  br label %9

9:                                                ; preds = %5, %1
  %10 = phi i1 [ false, %1 ], [ %8, %5 ]
  ret i1 %10
}